; Function Attrs: mustprogress nofree nounwind uwtable
define internal fastcc noundef nonnull ptr @_ZN12_GLOBAL__N_116itanium_demangle22AbstractManglingParserINS0_14ManglingParserINS_16DefaultAllocatorEEES3_E4makeINS0_11SpecialNameEJRA27_KcRPNS0_4NodeEEEESC_DpOT0_(ptr noundef nonnull align 16 captures(none) dereferenceable(4928) %0, ptr %.0.val) unnamed_addr #20 align 2 {
  %2 = getelementptr inbounds nuw i8, ptr %0, i64 4912
  %3 = load ptr, ptr %2, align 16, !tbaa !209
  %4 = getelementptr inbounds nuw i8, ptr %3, i64 8
  %5 = load i64, ptr %4, align 8, !tbaa !211
  %6 = add i64 %5, -4032
  %7 = icmp ult i64 %6, -4080
  br i1 %7, label %8, label %_ZN12_GLOBAL__N_116DefaultAllocator8makeNodeINS_16itanium_demangle11SpecialNameEJRA27_KcRPNS2_4NodeEEEEPT_DpOT0_.exit

8:                                                ; preds = %1
  %9 = tail call noalias dereferenceable_or_null(4096) ptr @malloc(i64 noundef 4096) #32
  %10 = icmp eq ptr %9, null
  br i1 %10, label %11, label %_ZN12_GLOBAL__N_120BumpPointerAllocator4growEv.exit.i.i

11:                                               ; preds = %8
  tail call void @_ZSt9terminatev() #33
  unreachable

_ZN12_GLOBAL__N_120BumpPointerAllocator4growEv.exit.i.i: ; preds = %8
  store ptr %3, ptr %9, align 8, !tbaa !213
  %12 = getelementptr inbounds nuw i8, ptr %9, i64 8
  store i64 0, ptr %12, align 8, !tbaa !211
  store ptr %9, ptr %2, align 16, !tbaa !209
  br label %_ZN12_GLOBAL__N_116DefaultAllocator8makeNodeINS_16itanium_demangle11SpecialNameEJRA27_KcRPNS2_4NodeEEEEPT_DpOT0_.exit

_ZN12_GLOBAL__N_116DefaultAllocator8makeNodeINS_16itanium_demangle11SpecialNameEJRA27_KcRPNS2_4NodeEEEEPT_DpOT0_.exit: ; preds = %1, %_ZN12_GLOBAL__N_120BumpPointerAllocator4growEv.exit.i.i
  %13 = phi i64 [ 0, %_ZN12_GLOBAL__N_120BumpPointerAllocator4growEv.exit.i.i ], [ %5, %1 ]
  %14 = phi ptr [ %9, %_ZN12_GLOBAL__N_120BumpPointerAllocator4growEv.exit.i.i ], [ %3, %1 ]
  %15 = getelementptr inbounds nuw i8, ptr %14, i64 8
  %16 = add nsw i64 %13, 48
  store i64 %16, ptr %15, align 8, !tbaa !211
  %17 = getelementptr inbounds nuw i8, ptr %14, i64 16
  %18 = getelementptr inbounds i8, ptr %17, i64 %13
  %19 = getelementptr inbounds nuw i8, ptr %18, i64 8
  store i8 21, ptr %19, align 8, !tbaa !16
  %20 = getelementptr inbounds nuw i8, ptr %18, i64 9
  %21 = load i16, ptr %20, align 1
  %22 = and i16 %21, -4096
  %23 = or disjoint i16 %22, 1344
  store i16 %23, ptr %20, align 1
  store ptr getelementptr inbounds nuw inrange(-16, 80) (i8, ptr @_ZTVN12_GLOBAL__N_116itanium_demangle11SpecialNameE, i64 16), ptr %18, align 8, !tbaa !214
  %24 = getelementptr inbounds nuw i8, ptr %18, i64 16
  store ptr @.str.159, ptr %24, align 8, !tbaa !219
  %.sroa.2.0..sroa_idx.i.i = getelementptr inbounds nuw i8, ptr %18, i64 24
  store i64 26, ptr %.sroa.2.0..sroa_idx.i.i, align 8, !tbaa !220
  %25 = getelementptr inbounds nuw i8, ptr %18, i64 32
  store ptr %.0.val, ptr %25, align 8, !tbaa !280
  ret ptr %18
}